; Function Attrs: mustprogress nofree norecurse nosync nounwind willreturn memory(readwrite, inaccessiblemem: none) uwtable
define dso_local void @_PyType_SetVersion(ptr noundef %0, i32 noundef %1) local_unnamed_addr #6 {
  %3 = tail call align 8 ptr @llvm.threadlocal.address.p0(ptr align 8 @_Py_tss_tstate)
  %4 = load ptr, ptr %3, align 8, !tbaa !22
  %5 = getelementptr inbounds nuw i8, ptr %4, i64 16
  %6 = load ptr, ptr %5, align 8, !tbaa !24
  %7 = getelementptr inbounds nuw i8, ptr %0, i64 384
  %8 = load i32, ptr %7, align 8, !tbaa !130
  %.not.i = icmp eq i32 %8, 0
  br i1 %.not.i, label %14, label %9

9:                                                ; preds = %2
  %10 = getelementptr inbounds nuw i8, ptr %6, i64 190168
  %11 = and i32 %8, 4095
  %12 = zext nneg i32 %11 to i64
  %13 = getelementptr ptr, ptr %10, i64 %12
  store ptr null, ptr %13, align 8, !tbaa !217
  br label %14

14:                                               ; preds = %9, %2
  %.not13.i = icmp eq i32 %1, 0
  br i1 %.not13.i, label %set_version_unlocked.exit, label %15

15:                                               ; preds = %14
  %16 = getelementptr inbounds nuw i8, ptr %0, i64 410
  %17 = load i16, ptr %16, align 2, !tbaa !131
  %18 = add i16 %17, 1
  store i16 %18, ptr %16, align 2, !tbaa !131
  %19 = getelementptr inbounds nuw i8, ptr %6, i64 190168
  %20 = and i32 %1, 4095
  %21 = zext nneg i32 %20 to i64
  %22 = getelementptr ptr, ptr %19, i64 %21
  store ptr %0, ptr %22, align 8, !tbaa !217
  br label %set_version_unlocked.exit

set_version_unlocked.exit:                        ; preds = %14, %15
  store i32 %1, ptr %7, align 8, !tbaa !130
  ret void
}